; Function Attrs: mustprogress nounwind uwtable
define hidden void @_ZN2cv11bioinspired36TransientAreasSegmentationModuleImplD0Ev(ptr noundef nonnull align 8 dereferenceable(472) initializes((0, 8)) %0) unnamed_addr #7 align 2 personality ptr @__gxx_personality_v0 {
  store ptr getelementptr inbounds nuw inrange(-16, 32) (i8, ptr @_ZTVN2cv11bioinspired36TransientAreasSegmentationModuleImplE, i64 16), ptr %0, align 8, !tbaa !14
  %2 = getelementptr inbounds nuw i8, ptr %0, i64 376
  tail call void @_ZN2cv3MatD1Ev(ptr noundef nonnull align 8 dereferenceable(96) %2) #27
  %3 = getelementptr inbounds nuw i8, ptr %0, i64 280
  tail call void @_ZN2cv3MatD1Ev(ptr noundef nonnull align 8 dereferenceable(96) %3) #27
  %4 = getelementptr inbounds nuw i8, ptr %0, i64 248
  %5 = load ptr, ptr %4, align 8, !tbaa !41
  tail call void @_ZdlPv(ptr noundef %5) #27
  %6 = getelementptr inbounds nuw i8, ptr %0, i64 232
  %7 = load ptr, ptr %6, align 8, !tbaa !37
  tail call void @_ZdlPv(ptr noundef %7) #27
  %8 = getelementptr inbounds nuw i8, ptr %0, i64 216
  %9 = load ptr, ptr %8, align 8, !tbaa !37
  tail call void @_ZdlPv(ptr noundef %9) #27
  %10 = getelementptr inbounds nuw i8, ptr %0, i64 8
  tail call void @_ZN2cv11bioinspired17BasicRetinaFilterD2Ev(ptr noundef nonnull align 8 dereferenceable(168) %10) #27
  tail call void @_ZdlPv(ptr noundef nonnull %0) #28
  ret void
}